target datalayout = "e-m:e-p270:32:32-p271:32:32-p272:64:64-i64:64-i128:128-f80:128-n8:16:32:64-S128"
target triple = "x86_64-pc-linux-gnu"

%struct.jv = type { i8, i8, i16, i32, %union.anon }
%union.anon = type { ptr }
%struct.test_pthread_data = type { i32 }

@.str.31 = private unnamed_addr constant [6 x i8] c".data\00", align 1
@.str.32 = private unnamed_addr constant [14 x i8] c"{ \22data\22: 1 }\00", align 1

; Function Attrs: nounwind uwtable
define internal i32 @jv_is_valid(i64 %0, ptr %1) #0 {
  %3 = alloca %struct.jv, align 8
  %4 = getelementptr inbounds nuw { i64, ptr }, ptr %3, i32 0, i32 0
  store i64 %0, ptr %4, align 8
  %5 = getelementptr inbounds nuw { i64, ptr }, ptr %3, i32 0, i32 1
  store ptr %1, ptr %5, align 8
  %6 = getelementptr inbounds nuw { i64, ptr }, ptr %3, i32 0, i32 0
  %7 = load i64, ptr %6, align 8
  %8 = getelementptr inbounds nuw { i64, ptr }, ptr %3, i32 0, i32 1
  %9 = load ptr, ptr %8, align 8
  %10 = call i32 @jv_get_kind(i64 %7, ptr %9)
  %11 = icmp ne i32 %10, 0
  %12 = zext i1 %11 to i32
  ret i32 %12
}

; Function Attrs: nounwind uwtable
define internal i32 @test_pthread_jq_parse(ptr noundef %0, ptr noundef %1) #0 {
  %3 = alloca ptr, align 8
  %4 = alloca ptr, align 8
  %5 = alloca i32, align 4
  %6 = alloca %struct.jv, align 8
  %7 = alloca %struct.jv, align 8
  %8 = alloca %struct.jv, align 8
  %9 = alloca %struct.jv, align 8
  %10 = alloca %struct.jv, align 8
  store ptr %0, ptr %3, align 8, !tbaa !17
  store ptr %1, ptr %4, align 8, !tbaa !37
  call void @llvm.lifetime.start.p0(i64 4, ptr %5) #9
  store i32 0, ptr %5, align 4, !tbaa !4
  call void @llvm.lifetime.start.p0(i64 16, ptr %6) #9
  call void @llvm.lifetime.start.p0(i64 16, ptr %7) #9
  %11 = load ptr, ptr %4, align 8, !tbaa !37
  %12 = call { i64, ptr } @jv_parser_next(ptr noundef %11)
  %13 = getelementptr inbounds nuw { i64, ptr }, ptr %7, i32 0, i32 0
  %14 = extractvalue { i64, ptr } %12, 0
  store i64 %14, ptr %13, align 8
  %15 = getelementptr inbounds nuw { i64, ptr }, ptr %7, i32 0, i32 1
  %16 = extractvalue { i64, ptr } %12, 1
  store ptr %16, ptr %15, align 8
  call void @llvm.memcpy.p0.p0.i64(ptr align 8 %6, ptr align 8 %7, i64 16, i1 false), !tbaa.struct !19
  call void @llvm.lifetime.end.p0(i64 16, ptr %7) #9
  br label %17

17:                                               ; preds = %54, %2
  %18 = getelementptr inbounds nuw { i64, ptr }, ptr %6, i32 0, i32 0
  %19 = load i64, ptr %18, align 8
  %20 = getelementptr inbounds nuw { i64, ptr }, ptr %6, i32 0, i32 1
  %21 = load ptr, ptr %20, align 8
  %22 = call i32 @jv_is_valid(i64 %19, ptr %21)
  %23 = icmp ne i32 %22, 0
  br i1 %23, label %24, label %65

24:                                               ; preds = %17
  %25 = load ptr, ptr %3, align 8, !tbaa !17
  %26 = getelementptr inbounds nuw { i64, ptr }, ptr %6, i32 0, i32 0
  %27 = load i64, ptr %26, align 8
  %28 = getelementptr inbounds nuw { i64, ptr }, ptr %6, i32 0, i32 1
  %29 = load ptr, ptr %28, align 8
  call void @jq_start(ptr noundef %25, i64 %27, ptr %29, i32 noundef 0)
  call void @llvm.lifetime.start.p0(i64 16, ptr %8) #9
  %30 = load ptr, ptr %3, align 8, !tbaa !17
  %31 = call { i64, ptr } @jq_next(ptr noundef %30)
  %32 = getelementptr inbounds nuw { i64, ptr }, ptr %8, i32 0, i32 0
  %33 = extractvalue { i64, ptr } %31, 0
  store i64 %33, ptr %32, align 8
  %34 = getelementptr inbounds nuw { i64, ptr }, ptr %8, i32 0, i32 1
  %35 = extractvalue { i64, ptr } %31, 1
  store ptr %35, ptr %34, align 8
  br label %36

36:                                               ; preds = %43, %24
  %37 = getelementptr inbounds nuw { i64, ptr }, ptr %8, i32 0, i32 0
  %38 = load i64, ptr %37, align 8
  %39 = getelementptr inbounds nuw { i64, ptr }, ptr %8, i32 0, i32 1
  %40 = load ptr, ptr %39, align 8
  %41 = call i32 @jv_is_valid(i64 %38, ptr %40)
  %42 = icmp ne i32 %41, 0
  br i1 %42, label %43, label %54

43:                                               ; preds = %36
  %44 = getelementptr inbounds nuw { i64, ptr }, ptr %8, i32 0, i32 0
  %45 = load i64, ptr %44, align 8
  %46 = getelementptr inbounds nuw { i64, ptr }, ptr %8, i32 0, i32 1
  %47 = load ptr, ptr %46, align 8
  call void @jv_free(i64 %45, ptr %47)
  call void @llvm.lifetime.start.p0(i64 16, ptr %9) #9
  %48 = load ptr, ptr %3, align 8, !tbaa !17
  %49 = call { i64, ptr } @jq_next(ptr noundef %48)
  %50 = getelementptr inbounds nuw { i64, ptr }, ptr %9, i32 0, i32 0
  %51 = extractvalue { i64, ptr } %49, 0
  store i64 %51, ptr %50, align 8
  %52 = getelementptr inbounds nuw { i64, ptr }, ptr %9, i32 0, i32 1
  %53 = extractvalue { i64, ptr } %49, 1
  store ptr %53, ptr %52, align 8
  call void @llvm.memcpy.p0.p0.i64(ptr align 8 %8, ptr align 8 %9, i64 16, i1 false), !tbaa.struct !19
  call void @llvm.lifetime.end.p0(i64 16, ptr %9) #9
  br label %36, !llvm.loop !41

54:                                               ; preds = %36
  %55 = getelementptr inbounds nuw { i64, ptr }, ptr %8, i32 0, i32 0
  %56 = load i64, ptr %55, align 8
  %57 = getelementptr inbounds nuw { i64, ptr }, ptr %8, i32 0, i32 1
  %58 = load ptr, ptr %57, align 8
  call void @jv_free(i64 %56, ptr %58)
  call void @llvm.lifetime.start.p0(i64 16, ptr %10) #9
  %59 = load ptr, ptr %4, align 8, !tbaa !37
  %60 = call { i64, ptr } @jv_parser_next(ptr noundef %59)
  %61 = getelementptr inbounds nuw { i64, ptr }, ptr %10, i32 0, i32 0
  %62 = extractvalue { i64, ptr } %60, 0
  store i64 %62, ptr %61, align 8
  %63 = getelementptr inbounds nuw { i64, ptr }, ptr %10, i32 0, i32 1
  %64 = extractvalue { i64, ptr } %60, 1
  store ptr %64, ptr %63, align 8
  call void @llvm.memcpy.p0.p0.i64(ptr align 8 %6, ptr align 8 %10, i64 16, i1 false), !tbaa.struct !19
  call void @llvm.lifetime.end.p0(i64 16, ptr %10) #9
  call void @llvm.lifetime.end.p0(i64 16, ptr %8) #9
  br label %17, !llvm.loop !42

65:                                               ; preds = %17
  %66 = getelementptr inbounds nuw { i64, ptr }, ptr %6, i32 0, i32 0
  %67 = load i64, ptr %66, align 8
  %68 = getelementptr inbounds nuw { i64, ptr }, ptr %6, i32 0, i32 1
  %69 = load ptr, ptr %68, align 8
  call void @jv_free(i64 %67, ptr %69)
  %70 = load i32, ptr %5, align 4, !tbaa !4
  call void @llvm.lifetime.end.p0(i64 16, ptr %6) #9
  call void @llvm.lifetime.end.p0(i64 4, ptr %5) #9
  ret i32 %70
}

; Function Attrs: nounwind uwtable
define internal ptr @test_pthread_run(ptr noundef %0) #0 {
  %2 = alloca ptr, align 8
  %3 = alloca ptr, align 8
  %4 = alloca i32, align 4
  %5 = alloca ptr, align 8
  %6 = alloca ptr, align 8
  %7 = alloca ptr, align 8
  %8 = alloca ptr, align 8
  %9 = alloca i32, align 4
  %10 = alloca ptr, align 8
  store ptr %0, ptr %3, align 8, !tbaa !27
  call void @llvm.lifetime.start.p0(i64 4, ptr %4) #9
  call void @llvm.lifetime.start.p0(i64 8, ptr %5) #9
  call void @llvm.lifetime.start.p0(i64 8, ptr %6) #9
  store ptr @.str.31, ptr %6, align 8, !tbaa !13
  call void @llvm.lifetime.start.p0(i64 8, ptr %7) #9
  store ptr @.str.32, ptr %7, align 8, !tbaa !13
  call void @llvm.lifetime.start.p0(i64 8, ptr %8) #9
  %11 = load ptr, ptr %3, align 8, !tbaa !27
  store ptr %11, ptr %8, align 8, !tbaa !35
  %12 = call ptr @jq_init()
  store ptr %12, ptr %5, align 8, !tbaa !17
  %13 = load ptr, ptr %5, align 8, !tbaa !17
  %14 = load ptr, ptr %6, align 8, !tbaa !13
  %15 = call i32 @jq_compile(ptr noundef %13, ptr noundef %14)
  %16 = icmp eq i32 %15, 0
  br i1 %16, label %17, label %18

17:                                               ; preds = %1
  call void @jq_teardown(ptr noundef %5)
  store ptr null, ptr %2, align 8
  store i32 1, ptr %9, align 4
  br label %32

18:                                               ; preds = %1
  call void @llvm.lifetime.start.p0(i64 8, ptr %10) #9
  %19 = call ptr @jv_parser_new(i32 noundef 0)
  store ptr %19, ptr %10, align 8, !tbaa !37
  %20 = load ptr, ptr %10, align 8, !tbaa !37
  %21 = load ptr, ptr %7, align 8, !tbaa !13
  %22 = load ptr, ptr %7, align 8, !tbaa !13
  %23 = call i64 @strlen(ptr noundef %22) #10
  %24 = trunc i64 %23 to i32
  call void @jv_parser_set_buf(ptr noundef %20, ptr noundef %21, i32 noundef %24, i32 noundef 0)
  %25 = load ptr, ptr %5, align 8, !tbaa !17
  %26 = load ptr, ptr %10, align 8, !tbaa !37
  %27 = call i32 @test_pthread_jq_parse(ptr noundef %25, ptr noundef %26)
  store i32 %27, ptr %4, align 4, !tbaa !4
  %28 = load i32, ptr %4, align 4, !tbaa !4
  %29 = load ptr, ptr %8, align 8, !tbaa !35
  %30 = getelementptr inbounds nuw %struct.test_pthread_data, ptr %29, i32 0, i32 0
  store i32 %28, ptr %30, align 4, !tbaa !39
  %31 = load ptr, ptr %10, align 8, !tbaa !37
  call void @jv_parser_free(ptr noundef %31)
  call void @jq_teardown(ptr noundef %5)
  store ptr null, ptr %2, align 8
  store i32 1, ptr %9, align 4
  call void @llvm.lifetime.end.p0(i64 8, ptr %10) #9
  br label %32

32:                                               ; preds = %18, %17
  call void @llvm.lifetime.end.p0(i64 8, ptr %8) #9
  call void @llvm.lifetime.end.p0(i64 8, ptr %7) #9
  call void @llvm.lifetime.end.p0(i64 8, ptr %6) #9
  call void @llvm.lifetime.end.p0(i64 8, ptr %5) #9
  call void @llvm.lifetime.end.p0(i64 4, ptr %4) #9
  %33 = load ptr, ptr %2, align 8
  ret ptr %33
}