; Function Attrs: nounwind uwtable
define internal noalias noundef ptr @test_pthread_run(ptr noundef writeonly captures(none) %0) #0 {
  %2 = alloca ptr, align 8
  call void @llvm.lifetime.start.p0(i64 8, ptr nonnull %2) #13
  %3 = tail call ptr @jq_init() #13
  store ptr %3, ptr %2, align 8, !tbaa !15
  %4 = tail call i32 @jq_compile(ptr noundef %3, ptr noundef nonnull @.str.31) #13
  %5 = icmp eq i32 %4, 0
  br i1 %5, label %16, label %6

6:                                                ; preds = %1
  %7 = tail call ptr @jv_parser_new(i32 noundef 0) #13
  tail call void @jv_parser_set_buf(ptr noundef %7, ptr noundef nonnull @.str.32, i32 noundef 13, i32 noundef 0) #13
  %8 = tail call { i64, ptr } @jv_parser_next(ptr noundef %7) #13
  %.sroa.713.031.i = extractvalue { i64, ptr } %8, 1
  %.sroa.010.032.i = extractvalue { i64, ptr } %8, 0
  %9 = tail call i32 @jv_get_kind(i64 %.sroa.010.032.i, ptr %.sroa.713.031.i) #13
  %.not2433.i = icmp eq i32 %9, 0
  br i1 %.not2433.i, label %test_pthread_jq_parse.exit, label %.lr.ph37.i

.lr.ph37.i:                                       ; preds = %6, %._crit_edge.i
  %.sroa.010.035.i = phi i64 [ %.sroa.010.0.i, %._crit_edge.i ], [ %.sroa.010.032.i, %6 ]
  %.sroa.713.034.i = phi ptr [ %.sroa.713.0.i, %._crit_edge.i ], [ %.sroa.713.031.i, %6 ]
  tail call void @jq_start(ptr noundef %3, i64 %.sroa.010.035.i, ptr %.sroa.713.034.i, i32 noundef 0) #13
  %10 = tail call { i64, ptr } @jq_next(ptr noundef %3) #13
  %.sroa.7.025.i = extractvalue { i64, ptr } %10, 1
  %.sroa.03.026.i = extractvalue { i64, ptr } %10, 0
  %11 = tail call i32 @jv_get_kind(i64 %.sroa.03.026.i, ptr %.sroa.7.025.i) #13
  %.not27.i = icmp eq i32 %11, 0
  br i1 %.not27.i, label %._crit_edge.i, label %.lr.ph.i

.lr.ph.i:                                         ; preds = %.lr.ph37.i, %.lr.ph.i
  %.sroa.03.029.i = phi i64 [ %.sroa.03.0.i, %.lr.ph.i ], [ %.sroa.03.026.i, %.lr.ph37.i ]
  %.sroa.7.028.i = phi ptr [ %.sroa.7.0.i, %.lr.ph.i ], [ %.sroa.7.025.i, %.lr.ph37.i ]
  tail call void @jv_free(i64 %.sroa.03.029.i, ptr %.sroa.7.028.i) #13
  %12 = tail call { i64, ptr } @jq_next(ptr noundef %3) #13
  %.sroa.7.0.i = extractvalue { i64, ptr } %12, 1
  %.sroa.03.0.i = extractvalue { i64, ptr } %12, 0
  %13 = tail call i32 @jv_get_kind(i64 %.sroa.03.0.i, ptr %.sroa.7.0.i) #13
  %.not.i = icmp eq i32 %13, 0
  br i1 %.not.i, label %._crit_edge.i, label %.lr.ph.i, !llvm.loop !25

._crit_edge.i:                                    ; preds = %.lr.ph.i, %.lr.ph37.i
  %.sroa.7.0.lcssa.i = phi ptr [ %.sroa.7.025.i, %.lr.ph37.i ], [ %.sroa.7.0.i, %.lr.ph.i ]
  %.sroa.03.0.lcssa.i = phi i64 [ %.sroa.03.026.i, %.lr.ph37.i ], [ %.sroa.03.0.i, %.lr.ph.i ]
  tail call void @jv_free(i64 %.sroa.03.0.lcssa.i, ptr %.sroa.7.0.lcssa.i) #13
  %14 = tail call { i64, ptr } @jv_parser_next(ptr noundef %7) #13
  %.sroa.713.0.i = extractvalue { i64, ptr } %14, 1
  %.sroa.010.0.i = extractvalue { i64, ptr } %14, 0
  %15 = tail call i32 @jv_get_kind(i64 %.sroa.010.0.i, ptr %.sroa.713.0.i) #13
  %.not24.i = icmp eq i32 %15, 0
  br i1 %.not24.i, label %test_pthread_jq_parse.exit, label %.lr.ph37.i, !llvm.loop !26

test_pthread_jq_parse.exit:                       ; preds = %._crit_edge.i, %6
  %.sroa.713.0.lcssa.i = phi ptr [ %.sroa.713.031.i, %6 ], [ %.sroa.713.0.i, %._crit_edge.i ]
  %.sroa.010.0.lcssa.i = phi i64 [ %.sroa.010.032.i, %6 ], [ %.sroa.010.0.i, %._crit_edge.i ]
  tail call void @jv_free(i64 %.sroa.010.0.lcssa.i, ptr %.sroa.713.0.lcssa.i) #13
  store i32 0, ptr %0, align 4, !tbaa !27
  tail call void @jv_parser_free(ptr noundef %7) #13
  br label %16

16:                                               ; preds = %1, %test_pthread_jq_parse.exit
  call void @jq_teardown(ptr noundef nonnull %2) #13
  call void @llvm.lifetime.end.p0(i64 8, ptr nonnull %2) #13
  ret ptr null
}